target datalayout = "e-m:e-p270:32:32-p271:32:32-p272:64:64-i64:64-i128:128-f80:128-n8:16:32:64-S128"
target triple = "x86_64-pc-linux-gnu"

%"class.sat::literal" = type { i32 }
%"class.sat::watched" = type <{ i64, i32, [4 x i8] }>
%class.vector = type { ptr }

; Function Attrs: mustprogress nounwind uwtable
define linkonce_odr hidden void @_ZN3sat7literalC2Ev(ptr noundef nonnull align 4 dereferenceable(4) %0) unnamed_addr #6 comdat align 2 {
  %2 = alloca ptr, align 8
  store ptr %0, ptr %2, align 8, !tbaa !23
  %3 = load ptr, ptr %2, align 8
  %4 = getelementptr inbounds nuw %"class.sat::literal", ptr %3, i32 0, i32 0
  store i32 -2, ptr %4, align 4, !tbaa !25
  ret void
}

; Function Attrs: inlinehint mustprogress uwtable
define linkonce_odr hidden i32 @_ZN3sat10to_literalEj(i32 noundef %0) #9 comdat {
  %2 = alloca %"class.sat::literal", align 4
  %3 = alloca i32, align 4
  store i32 %0, ptr %3, align 4, !tbaa !13
  call void @_ZN3sat7literalC2Ev(ptr noundef nonnull align 4 dereferenceable(4) %2)
  %4 = load i32, ptr %3, align 4, !tbaa !13
  %5 = getelementptr inbounds nuw %"class.sat::literal", ptr %2, i32 0, i32 0
  store i32 %4, ptr %5, align 4, !tbaa !25
  %6 = getelementptr inbounds nuw %"class.sat::literal", ptr %2, i32 0, i32 0
  %7 = load i32, ptr %6, align 4
  ret i32 %7
}

; Function Attrs: mustprogress nounwind uwtable
define linkonce_odr hidden noundef i32 @_ZNK3sat7watched8get_kindEv(ptr noundef nonnull align 8 dereferenceable(12) %0) #6 comdat align 2 {
  %2 = alloca ptr, align 8
  store ptr %0, ptr %2, align 8, !tbaa !10
  %3 = load ptr, ptr %2, align 8
  %4 = getelementptr inbounds nuw %"class.sat::watched", ptr %3, i32 0, i32 1
  %5 = load i32, ptr %4, align 8, !tbaa !43
  %6 = and i32 %5, 3
  ret i32 %6
}

; Function Attrs: mustprogress nounwind uwtable
define linkonce_odr hidden noundef i32 @_ZNK6vectorIN3sat7watchedELb1EjE4sizeEv(ptr noundef nonnull align 8 dereferenceable(8) %0) #6 comdat align 2 {
  %2 = alloca i32, align 4
  %3 = alloca ptr, align 8
  store ptr %0, ptr %3, align 8, !tbaa !3
  %4 = load ptr, ptr %3, align 8
  %5 = getelementptr inbounds nuw %class.vector, ptr %4, i32 0, i32 0
  %6 = load ptr, ptr %5, align 8, !tbaa !18
  %7 = icmp eq ptr %6, null
  br i1 %7, label %8, label %9

8:                                                ; preds = %1
  store i32 0, ptr %2, align 4
  br label %14

9:                                                ; preds = %1
  %10 = getelementptr inbounds nuw %class.vector, ptr %4, i32 0, i32 0
  %11 = load ptr, ptr %10, align 8, !tbaa !18
  %12 = getelementptr inbounds i32, ptr %11, i64 -1
  %13 = load i32, ptr %12, align 4, !tbaa !13
  store i32 %13, ptr %2, align 4
  br label %14

14:                                               ; preds = %9, %8
  %15 = load i32, ptr %2, align 4
  ret i32 %15
}

; Function Attrs: inlinehint mustprogress nounwind uwtable
define linkonce_odr hidden noundef zeroext i1 @_ZN3sateqERKNS_7literalES2_(ptr noundef nonnull align 4 dereferenceable(4) %0, ptr noundef nonnull align 4 dereferenceable(4) %1) #8 comdat {
  %3 = alloca ptr, align 8
  %4 = alloca ptr, align 8
  store ptr %0, ptr %3, align 8, !tbaa !23
  store ptr %1, ptr %4, align 8, !tbaa !23
  %5 = load ptr, ptr %3, align 8, !tbaa !23
  %6 = getelementptr inbounds nuw %"class.sat::literal", ptr %5, i32 0, i32 0
  %7 = load i32, ptr %6, align 4, !tbaa !25
  %8 = load ptr, ptr %4, align 8, !tbaa !23
  %9 = getelementptr inbounds nuw %"class.sat::literal", ptr %8, i32 0, i32 0
  %10 = load i32, ptr %9, align 4, !tbaa !25
  %11 = icmp eq i32 %7, %10
  ret i1 %11
}

; Function Attrs: mustprogress uwtable
define linkonce_odr hidden i32 @_ZNK3sat7watched11get_literalEv(ptr noundef nonnull align 8 dereferenceable(12) %0) #4 comdat align 2 {
  %2 = alloca %"class.sat::literal", align 4
  %3 = alloca ptr, align 8
  store ptr %0, ptr %3, align 8, !tbaa !10
  %4 = load ptr, ptr %3, align 8
  %5 = getelementptr inbounds nuw %"class.sat::watched", ptr %4, i32 0, i32 0
  %6 = load i64, ptr %5, align 8, !tbaa !20
  %7 = trunc i64 %6 to i32
  %8 = call i32 @_ZN3sat10to_literalEj(i32 noundef %7)
  %9 = getelementptr inbounds nuw %"class.sat::literal", ptr %2, i32 0, i32 0
  store i32 %8, ptr %9, align 4
  %10 = getelementptr inbounds nuw %"class.sat::literal", ptr %2, i32 0, i32 0
  %11 = load i32, ptr %10, align 4
  ret i32 %11
}

; Function Attrs: mustprogress uwtable
define linkonce_odr hidden noundef zeroext i1 @_ZNK3sat7watched16is_binary_clauseEv(ptr noundef nonnull align 8 dereferenceable(12) %0) #4 comdat align 2 {
  %2 = alloca ptr, align 8
  store ptr %0, ptr %2, align 8, !tbaa !10
  %3 = load ptr, ptr %2, align 8
  %4 = call noundef i32 @_ZNK3sat7watched8get_kindEv(ptr noundef nonnull align 8 dereferenceable(12) %3)
  %5 = icmp eq i32 %4, 0
  ret i1 %5
}

; Function Attrs: mustprogress nounwind uwtable
define linkonce_odr hidden noundef ptr @_ZNK6vectorIN3sat7watchedELb1EjE3endEv(ptr noundef nonnull align 8 dereferenceable(8) %0) #6 comdat align 2 {
  %2 = alloca ptr, align 8
  store ptr %0, ptr %2, align 8, !tbaa !3
  %3 = load ptr, ptr %2, align 8
  %4 = getelementptr inbounds nuw %class.vector, ptr %3, i32 0, i32 0
  %5 = load ptr, ptr %4, align 8, !tbaa !18
  %6 = call noundef i32 @_ZNK6vectorIN3sat7watchedELb1EjE4sizeEv(ptr noundef nonnull align 8 dereferenceable(8) %3)
  %7 = zext i32 %6 to i64
  %8 = getelementptr inbounds nuw %"class.sat::watched", ptr %5, i64 %7
  ret ptr %8
}

; Function Attrs: mustprogress nounwind uwtable
define linkonce_odr hidden noundef ptr @_ZNK6vectorIN3sat7watchedELb1EjE5beginEv(ptr noundef nonnull align 8 dereferenceable(8) %0) #6 comdat align 2 {
  %2 = alloca ptr, align 8
  store ptr %0, ptr %2, align 8, !tbaa !3
  %3 = load ptr, ptr %2, align 8
  %4 = getelementptr inbounds nuw %class.vector, ptr %3, i32 0, i32 0
  %5 = load ptr, ptr %4, align 8, !tbaa !18
  ret ptr %5
}

; Function Attrs: mustprogress uwtable
define hidden noundef ptr @_ZN3sat17find_binary_watchERK6vectorINS_7watchedELb1EjENS_7literalE(ptr noundef nonnull align 8 dereferenceable(8) %0, i32 %1) #4 {
  %3 = alloca ptr, align 8
  %4 = alloca %"class.sat::literal", align 4
  %5 = alloca ptr, align 8
  %6 = alloca ptr, align 8
  %7 = alloca ptr, align 8
  %8 = alloca ptr, align 8
  %9 = alloca i32, align 4
  %10 = alloca ptr, align 8
  %11 = alloca %"class.sat::literal", align 4
  %12 = getelementptr inbounds nuw %"class.sat::literal", ptr %4, i32 0, i32 0
  store i32 %1, ptr %12, align 4
  store ptr %0, ptr %5, align 8, !tbaa !3
  call void @llvm.lifetime.start.p0(i64 8, ptr %6) #3
  %13 = load ptr, ptr %5, align 8, !tbaa !3
  store ptr %13, ptr %6, align 8, !tbaa !3
  call void @llvm.lifetime.start.p0(i64 8, ptr %7) #3
  %14 = load ptr, ptr %6, align 8, !tbaa !3
  %15 = call noundef ptr @_ZNK6vectorIN3sat7watchedELb1EjE5beginEv(ptr noundef nonnull align 8 dereferenceable(8) %14)
  store ptr %15, ptr %7, align 8, !tbaa !10
  call void @llvm.lifetime.start.p0(i64 8, ptr %8) #3
  %16 = load ptr, ptr %6, align 8, !tbaa !3
  %17 = call noundef ptr @_ZNK6vectorIN3sat7watchedELb1EjE3endEv(ptr noundef nonnull align 8 dereferenceable(8) %16)
  store ptr %17, ptr %8, align 8, !tbaa !10
  br label %18

18:                                               ; preds = %40, %2
  %19 = load ptr, ptr %7, align 8, !tbaa !10
  %20 = load ptr, ptr %8, align 8, !tbaa !10
  %21 = icmp ne ptr %19, %20
  br i1 %21, label %23, label %22

22:                                               ; preds = %18
  store i32 2, ptr %9, align 4
  br label %43

23:                                               ; preds = %18
  call void @llvm.lifetime.start.p0(i64 8, ptr %10) #3
  %24 = load ptr, ptr %7, align 8, !tbaa !10
  store ptr %24, ptr %10, align 8, !tbaa !10
  %25 = load ptr, ptr %10, align 8, !tbaa !10
  %26 = call noundef zeroext i1 @_ZNK3sat7watched16is_binary_clauseEv(ptr noundef nonnull align 8 dereferenceable(12) %25)
  call void @llvm.lifetime.start.p0(i64 4, ptr %11) #3
  br i1 %26, label %27, label %32

27:                                               ; preds = %23
  %28 = load ptr, ptr %10, align 8, !tbaa !10
  %29 = call i32 @_ZNK3sat7watched11get_literalEv(ptr noundef nonnull align 8 dereferenceable(12) %28)
  %30 = getelementptr inbounds nuw %"class.sat::literal", ptr %11, i32 0, i32 0
  store i32 %29, ptr %30, align 4
  %31 = call noundef zeroext i1 @_ZN3sateqERKNS_7literalES2_(ptr noundef nonnull align 4 dereferenceable(4) %11, ptr noundef nonnull align 4 dereferenceable(4) %4)
  br label %32

32:                                               ; preds = %27, %23
  %33 = phi i1 [ false, %23 ], [ %31, %27 ]
  call void @llvm.lifetime.end.p0(i64 4, ptr %11) #3
  br i1 %33, label %34, label %36

34:                                               ; preds = %32
  %35 = load ptr, ptr %10, align 8, !tbaa !10
  store ptr %35, ptr %3, align 8
  store i32 1, ptr %9, align 4
  br label %37

36:                                               ; preds = %32
  store i32 0, ptr %9, align 4
  br label %37

37:                                               ; preds = %36, %34
  call void @llvm.lifetime.end.p0(i64 8, ptr %10) #3
  %38 = load i32, ptr %9, align 4
  switch i32 %38, label %43 [
    i32 0, label %39
  ]

39:                                               ; preds = %37
  br label %40

40:                                               ; preds = %39
  %41 = load ptr, ptr %7, align 8, !tbaa !10
  %42 = getelementptr inbounds nuw %"class.sat::watched", ptr %41, i32 1
  store ptr %42, ptr %7, align 8, !tbaa !10
  br label %18

43:                                               ; preds = %37, %22
  call void @llvm.lifetime.end.p0(i64 8, ptr %8) #3
  call void @llvm.lifetime.end.p0(i64 8, ptr %7) #3
  call void @llvm.lifetime.end.p0(i64 8, ptr %6) #3
  %44 = load i32, ptr %9, align 4
  switch i32 %44, label %48 [
    i32 2, label %45
    i32 1, label %46
  ]

45:                                               ; preds = %43
  store ptr null, ptr %3, align 8
  br label %46

46:                                               ; preds = %45, %43
  %47 = load ptr, ptr %3, align 8
  ret ptr %47

48:                                               ; preds = %43
  unreachable
}