; Function Attrs: mustprogress nofree norecurse nosync nounwind willreturn memory(read, inaccessiblemem: none) uwtable
define hidden noundef ptr @_ZN3sat17find_binary_watchERK6vectorINS_7watchedELb1EjENS_7literalE(ptr noundef nonnull readonly align 8 captures(none) dereferenceable(8) %0, i32 %1) local_unnamed_addr #5 {
  %3 = load ptr, ptr %0, align 8, !tbaa !3
  %4 = icmp eq ptr %3, null
  br i1 %4, label %._crit_edge, label %_ZNK6vectorIN3sat7watchedELb1EjE3endEv.exit

_ZNK6vectorIN3sat7watchedELb1EjE3endEv.exit:      ; preds = %2
  %5 = getelementptr inbounds i8, ptr %3, i64 -4
  %6 = load i32, ptr %5, align 4, !tbaa !9
  %7 = zext i32 %6 to i64
  %8 = getelementptr inbounds nuw %"class.sat::watched", ptr %3, i64 %7
  %.not19 = icmp eq i32 %6, 0
  br i1 %.not19, label %._crit_edge, label %.lr.ph

.lr.ph:                                           ; preds = %_ZNK6vectorIN3sat7watchedELb1EjE3endEv.exit, %17
  %.01420 = phi ptr [ %18, %17 ], [ %3, %_ZNK6vectorIN3sat7watchedELb1EjE3endEv.exit ]
  %9 = getelementptr inbounds nuw i8, ptr %.01420, i64 8
  %10 = load i32, ptr %9, align 8, !tbaa !11
  %11 = and i32 %10, 3
  %12 = icmp eq i32 %11, 0
  br i1 %12, label %13, label %17

13:                                               ; preds = %.lr.ph
  %14 = load i64, ptr %.01420, align 8, !tbaa !14
  %15 = trunc i64 %14 to i32
  %16 = icmp eq i32 %1, %15
  br i1 %16, label %._crit_edge, label %17

17:                                               ; preds = %13, %.lr.ph
  %18 = getelementptr inbounds nuw i8, ptr %.01420, i64 16
  %.not = icmp eq ptr %18, %8
  br i1 %.not, label %._crit_edge, label %.lr.ph

._crit_edge:                                      ; preds = %17, %13, %2, %_ZNK6vectorIN3sat7watchedELb1EjE3endEv.exit
  %spec.select = phi ptr [ null, %_ZNK6vectorIN3sat7watchedELb1EjE3endEv.exit ], [ null, %2 ], [ %.01420, %13 ], [ null, %17 ]
  ret ptr %spec.select
}